target datalayout = "e-m:e-p270:32:32-p271:32:32-p272:64:64-i64:64-i128:128-f80:128-n8:16:32:64-S128"
target triple = "x86_64-pc-linux-gnu"

%struct.pcapio_writer = type { ptr, ptr, i32 }

; Function Attrs: null_pointer_is_valid sspstrong uwtable
define hidden zeroext i1 @writecap_flush(ptr noundef %0, ptr noundef %1) #0 {
  %3 = alloca i1, align 1
  %4 = alloca ptr, align 8
  %5 = alloca ptr, align 8
  store ptr %0, ptr %4, align 8
  store ptr %1, ptr %5, align 8
  %6 = load ptr, ptr %4, align 8
  %7 = getelementptr inbounds nuw %struct.pcapio_writer, ptr %6, i32 0, i32 2
  %8 = load i32, ptr %7, align 8
  switch i32 %8, label %43 [
    i32 1, label %9
    i32 3, label %26
  ]

9:                                                ; preds = %2
  %10 = load ptr, ptr %4, align 8
  %11 = getelementptr inbounds nuw %struct.pcapio_writer, ptr %10, i32 0, i32 0
  %12 = load ptr, ptr %11, align 8
  %13 = call i32 @gzwfile_flush(ptr noundef %12)
  %14 = icmp eq i32 %13, -1
  br i1 %14, label %15, label %25

15:                                               ; preds = %9
  %16 = load ptr, ptr %5, align 8
  %17 = icmp ne ptr %16, null
  br i1 %17, label %18, label %24

18:                                               ; preds = %15
  %19 = load ptr, ptr %4, align 8
  %20 = getelementptr inbounds nuw %struct.pcapio_writer, ptr %19, i32 0, i32 0
  %21 = load ptr, ptr %20, align 8
  %22 = call i32 @gzwfile_geterr(ptr noundef %21)
  %23 = load ptr, ptr %5, align 8
  store i32 %22, ptr %23, align 4
  br label %24

24:                                               ; preds = %18, %15
  store i1 false, ptr %3, align 1
  br label %59

25:                                               ; preds = %9
  br label %58

26:                                               ; preds = %2
  %27 = load ptr, ptr %4, align 8
  %28 = getelementptr inbounds nuw %struct.pcapio_writer, ptr %27, i32 0, i32 0
  %29 = load ptr, ptr %28, align 8
  %30 = call i32 @lz4wfile_flush(ptr noundef %29)
  %31 = icmp eq i32 %30, -1
  br i1 %31, label %32, label %42

32:                                               ; preds = %26
  %33 = load ptr, ptr %5, align 8
  %34 = icmp ne ptr %33, null
  br i1 %34, label %35, label %41

35:                                               ; preds = %32
  %36 = load ptr, ptr %4, align 8
  %37 = getelementptr inbounds nuw %struct.pcapio_writer, ptr %36, i32 0, i32 0
  %38 = load ptr, ptr %37, align 8
  %39 = call i32 @lz4wfile_geterr(ptr noundef %38)
  %40 = load ptr, ptr %5, align 8
  store i32 %39, ptr %40, align 4
  br label %41

41:                                               ; preds = %35, %32
  store i1 false, ptr %3, align 1
  br label %59

42:                                               ; preds = %26
  br label %58

43:                                               ; preds = %2
  %44 = load ptr, ptr %4, align 8
  %45 = getelementptr inbounds nuw %struct.pcapio_writer, ptr %44, i32 0, i32 0
  %46 = load ptr, ptr %45, align 8
  %47 = call i32 @fflush(ptr noundef %46)
  %48 = icmp eq i32 %47, -1
  br i1 %48, label %49, label %57

49:                                               ; preds = %43
  %50 = load ptr, ptr %5, align 8
  %51 = icmp ne ptr %50, null
  br i1 %51, label %52, label %56

52:                                               ; preds = %49
  %53 = call ptr @__errno_location() #15
  %54 = load i32, ptr %53, align 4
  %55 = load ptr, ptr %5, align 8
  store i32 %54, ptr %55, align 4
  br label %56

56:                                               ; preds = %52, %49
  store i1 false, ptr %3, align 1
  br label %59

57:                                               ; preds = %43
  br label %58

58:                                               ; preds = %57, %42, %25
  store i1 true, ptr %3, align 1
  br label %59

59:                                               ; preds = %58, %56, %41, %24
  %60 = load i1, ptr %3, align 1
  ret i1 %60
}