; Function Attrs: null_pointer_is_valid sspstrong uwtable
define hidden noundef zeroext i1 @writecap_flush(ptr noundef readonly captures(none) %0, ptr noundef writeonly captures(address_is_null) %1) local_unnamed_addr #0 {
  %3 = getelementptr inbounds nuw i8, ptr %0, i64 16
  %4 = load i32, ptr %3, align 8
  %5 = load ptr, ptr %0, align 8
  switch i32 %4, label %20 [
    i32 1, label %6
    i32 3, label %13
  ]

6:                                                ; preds = %2
  %7 = tail call i32 @gzwfile_flush(ptr noundef %5)
  %8 = icmp eq i32 %7, -1
  br i1 %8, label %9, label %27

9:                                                ; preds = %6
  %.not14 = icmp eq ptr %1, null
  br i1 %.not14, label %27, label %10

10:                                               ; preds = %9
  %11 = load ptr, ptr %0, align 8
  %12 = tail call i32 @gzwfile_geterr(ptr noundef %11)
  br label %.sink.split

13:                                               ; preds = %2
  %14 = tail call i32 @lz4wfile_flush(ptr noundef %5)
  %15 = icmp eq i32 %14, -1
  br i1 %15, label %16, label %27

16:                                               ; preds = %13
  %.not = icmp eq ptr %1, null
  br i1 %.not, label %27, label %17

17:                                               ; preds = %16
  %18 = load ptr, ptr %0, align 8
  %19 = tail call i32 @lz4wfile_geterr(ptr noundef %18)
  br label %.sink.split

20:                                               ; preds = %2
  %21 = tail call i32 @fflush(ptr noundef %5)
  %22 = icmp eq i32 %21, -1
  br i1 %22, label %23, label %27

23:                                               ; preds = %20
  %.not15 = icmp eq ptr %1, null
  br i1 %.not15, label %27, label %24

24:                                               ; preds = %23
  %25 = tail call ptr @__errno_location() #13
  %26 = load i32, ptr %25, align 4
  br label %.sink.split

.sink.split:                                      ; preds = %10, %17, %24
  %.sink = phi i32 [ %26, %24 ], [ %19, %17 ], [ %12, %10 ]
  store i32 %.sink, ptr %1, align 4
  br label %27

27:                                               ; preds = %.sink.split, %6, %13, %20, %23, %16, %9
  %.0 = phi i1 [ false, %9 ], [ false, %16 ], [ false, %23 ], [ true, %20 ], [ true, %13 ], [ true, %6 ], [ false, %.sink.split ]
  ret i1 %.0
}